; Function Attrs: mustprogress nounwind uwtable
define internal void @_ZN4node9inspector12_GLOBAL__N_111HttpHandler5OnEofEv(ptr nocapture noundef nonnull align 8 dereferenceable(448) %this) unnamed_addr #0 align 2 {
entry:
  %tcp_ = getelementptr inbounds i8, ptr %this, i64 16
  %0 = load ptr, ptr %tcp_, align 8
  store ptr null, ptr %tcp_, align 8
  %tobool.not.i.i = icmp eq ptr %0, null
  br i1 %tobool.not.i.i, label %_ZNSt10unique_ptrIN4node9inspector9TcpHolderENS0_15FunctionDeleterIS2_XadL_ZNS2_20DisconnectAndDisposeEPS2_EEEEE5resetES4_.exit, label %if.then.i.i

if.then.i.i:                                      ; preds = %entry
  tail call void @uv_close(ptr noundef nonnull %0, ptr noundef nonnull @_ZN4node9inspector9TcpHolder8OnClosedEP11uv_handle_s) #19
  br label %_ZNSt10unique_ptrIN4node9inspector9TcpHolderENS0_15FunctionDeleterIS2_XadL_ZNS2_20DisconnectAndDisposeEPS2_EEEEE5resetES4_.exit

_ZNSt10unique_ptrIN4node9inspector9TcpHolderENS0_15FunctionDeleterIS2_XadL_ZNS2_20DisconnectAndDisposeEPS2_EEEEE5resetES4_.exit: ; preds = %entry, %if.then.i.i
  ret void
}